; Function Attrs: mustprogress uwtable
define range(i32 0, 2) i32 @proj_context_set_enable_network(ptr noundef %0, i32 noundef %1) local_unnamed_addr #3 {
  %3 = icmp eq ptr %0, null
  br i1 %3, label %4, label %6

4:                                                ; preds = %2
  %5 = tail call noundef ptr @_Z18pj_get_default_ctxv()
  br label %6

6:                                                ; preds = %4, %2
  %.0 = phi ptr [ %5, %4 ], [ %0, %2 ]
  tail call void @_Z11pj_load_iniP6pj_ctx(ptr noundef %.0)
  %7 = icmp ne i32 %1, 0
  %8 = getelementptr inbounds nuw i8, ptr %.0, i64 416
  %9 = zext i1 %7 to i8
  store i8 %9, ptr %8, align 8, !tbaa !236
  %10 = zext i1 %7 to i32
  ret i32 %10
}